; Function Attrs: mustprogress uwtable
define dso_local noundef zeroext i1 @_ZN4absl19str_format_internal14ConvertBoolArgEbPNS0_14FormatSinkImplE(i1 noundef zeroext %0, ptr noundef %1) local_unnamed_addr #0 personality ptr @__gxx_personality_v0 {
  %3 = getelementptr inbounds nuw i8, ptr %1, i64 16
  %4 = load i64, ptr %3, align 8, !tbaa !16
  %5 = getelementptr inbounds nuw i8, ptr %1, i64 1056
  %6 = getelementptr inbounds nuw i8, ptr %1, i64 24
  %7 = ptrtoint ptr %5 to i64
  br i1 %0, label %8, label %25

8:                                                ; preds = %2
  %9 = add i64 %4, 4
  store i64 %9, ptr %3, align 8, !tbaa !16
  %10 = load ptr, ptr %6, align 8, !tbaa !19
  %11 = ptrtoint ptr %10 to i64
  %12 = sub i64 %7, %11
  %.not.i = icmp ugt i64 %12, 4
  br i1 %.not.i, label %22, label %13

13:                                               ; preds = %8
  %14 = getelementptr inbounds nuw i8, ptr %1, i64 32
  %15 = ptrtoint ptr %14 to i64
  %16 = sub i64 %11, %15
  %17 = getelementptr inbounds nuw i8, ptr %1, i64 8
  %18 = load ptr, ptr %17, align 8, !tbaa !20
  %19 = load ptr, ptr %1, align 8, !tbaa !21
  tail call void %18(ptr noundef %19, i64 %16, ptr nonnull %14)
  store ptr %14, ptr %6, align 8, !tbaa !19
  %20 = load ptr, ptr %17, align 8, !tbaa !20
  %21 = load ptr, ptr %1, align 8, !tbaa !21
  tail call void %20(ptr noundef %21, i64 4, ptr nonnull @.str)
  br label %_ZN4absl19str_format_internal14FormatSinkImpl6AppendESt17basic_string_viewIcSt11char_traitsIcEE.exit

22:                                               ; preds = %8
  store i32 1702195828, ptr %10, align 1
  %23 = load ptr, ptr %6, align 8, !tbaa !19
  %24 = getelementptr inbounds nuw i8, ptr %23, i64 4
  store ptr %24, ptr %6, align 8, !tbaa !19
  br label %_ZN4absl19str_format_internal14FormatSinkImpl6AppendESt17basic_string_viewIcSt11char_traitsIcEE.exit

25:                                               ; preds = %2
  %26 = add i64 %4, 5
  store i64 %26, ptr %3, align 8, !tbaa !16
  %27 = load ptr, ptr %6, align 8, !tbaa !19
  %28 = ptrtoint ptr %27 to i64
  %29 = sub i64 %7, %28
  %.not.i2 = icmp ugt i64 %29, 5
  br i1 %.not.i2, label %39, label %30

30:                                               ; preds = %25
  %31 = getelementptr inbounds nuw i8, ptr %1, i64 32
  %32 = ptrtoint ptr %31 to i64
  %33 = sub i64 %28, %32
  %34 = getelementptr inbounds nuw i8, ptr %1, i64 8
  %35 = load ptr, ptr %34, align 8, !tbaa !20
  %36 = load ptr, ptr %1, align 8, !tbaa !21
  tail call void %35(ptr noundef %36, i64 %33, ptr nonnull %31)
  store ptr %31, ptr %6, align 8, !tbaa !19
  %37 = load ptr, ptr %34, align 8, !tbaa !20
  %38 = load ptr, ptr %1, align 8, !tbaa !21
  tail call void %37(ptr noundef %38, i64 5, ptr nonnull @.str.1)
  br label %_ZN4absl19str_format_internal14FormatSinkImpl6AppendESt17basic_string_viewIcSt11char_traitsIcEE.exit

39:                                               ; preds = %25
  tail call void @llvm.memcpy.p0.p0.i64(ptr noundef nonnull align 1 dereferenceable(5) %27, ptr noundef nonnull align 1 dereferenceable(5) @.str.1, i64 5, i1 false)
  %40 = load ptr, ptr %6, align 8, !tbaa !19
  %41 = getelementptr inbounds nuw i8, ptr %40, i64 5
  store ptr %41, ptr %6, align 8, !tbaa !19
  br label %_ZN4absl19str_format_internal14FormatSinkImpl6AppendESt17basic_string_viewIcSt11char_traitsIcEE.exit

_ZN4absl19str_format_internal14FormatSinkImpl6AppendESt17basic_string_viewIcSt11char_traitsIcEE.exit: ; preds = %39, %30, %22, %13
  ret i1 true
}